; Function Attrs: mustprogress uwtable
define noundef i32 @_ZN3zmq9scatter_t5xsendEPNS_5msg_tE(ptr noundef nonnull align 8 dereferenceable(1880) %this, ptr noundef nonnull %msg_) unnamed_addr #0 align 2 {
entry:
  %call = tail call noundef zeroext i8 @_ZNK3zmq5msg_t5flagsEv(ptr noundef nonnull align 8 dereferenceable(64) %msg_)
  %0 = and i8 %call, 1
  %tobool.not = icmp eq i8 %0, 0
  br i1 %tobool.not, label %if.end, label %if.then

if.then:                                          ; preds = %entry
  %call2 = tail call ptr @__errno_location() #9
  store i32 22, ptr %call2, align 4
  br label %return

if.end:                                           ; preds = %entry
  %_lb = getelementptr inbounds i8, ptr %this, i64 1832
  %call3 = tail call noundef i32 @_ZN3zmq4lb_t4sendEPNS_5msg_tE(ptr noundef nonnull align 8 dereferenceable(42) %_lb, ptr noundef nonnull %msg_)
  br label %return

return:                                           ; preds = %if.end, %if.then
  %retval.0 = phi i32 [ -1, %if.then ], [ %call3, %if.end ]
  ret i32 %retval.0
}